target datalayout = "e-m:e-p270:32:32-p271:32:32-p272:64:64-i64:64-i128:128-f80:128-n8:16:32:64-S128"
target triple = "x86_64-pc-linux-gnu"

%struct.ASN1_STREAM_ARG_st = type { ptr, ptr, ptr }
%struct.ASN1_ITEM_st = type { i8, i64, ptr, i64, ptr, i64, ptr }
%struct.ASN1_AUX_st = type { ptr, i32, i32, i32, ptr, i32, ptr }
%struct.ndef_aux_st = type { ptr, ptr, ptr, ptr, ptr, ptr }

@.str = private unnamed_addr constant [34 x i8] c"../openssl/crypto/asn1/bio_ndef.c\00", align 1
@__func__.BIO_new_NDEF = private unnamed_addr constant [13 x i8] c"BIO_new_NDEF\00", align 1

; Function Attrs: nounwind uwtable
define ptr @BIO_new_NDEF(ptr noundef %0, ptr noundef %1, ptr noundef %2) #0 {
  %4 = alloca ptr, align 8
  %5 = alloca ptr, align 8
  %6 = alloca ptr, align 8
  %7 = alloca ptr, align 8
  %8 = alloca ptr, align 8
  %9 = alloca ptr, align 8
  %10 = alloca ptr, align 8
  %11 = alloca %struct.ASN1_STREAM_ARG_st, align 8
  %12 = alloca ptr, align 8
  %13 = alloca i32, align 4
  store ptr %0, ptr %5, align 8, !tbaa !3
  store ptr %1, ptr %6, align 8, !tbaa !8
  store ptr %2, ptr %7, align 8, !tbaa !10
  call void @llvm.lifetime.start.p0(i64 8, ptr %8) #3
  store ptr null, ptr %8, align 8, !tbaa !12
  call void @llvm.lifetime.start.p0(i64 8, ptr %9) #3
  store ptr null, ptr %9, align 8, !tbaa !3
  call void @llvm.lifetime.start.p0(i64 8, ptr %10) #3
  %14 = load ptr, ptr %7, align 8, !tbaa !10
  %15 = getelementptr inbounds nuw %struct.ASN1_ITEM_st, ptr %14, i32 0, i32 4
  %16 = load ptr, ptr %15, align 8, !tbaa !14
  store ptr %16, ptr %10, align 8, !tbaa !19
  call void @llvm.lifetime.start.p0(i64 24, ptr %11) #3
  call void @llvm.lifetime.start.p0(i64 8, ptr %12) #3
  store ptr null, ptr %12, align 8, !tbaa !3
  %17 = load ptr, ptr %10, align 8, !tbaa !19
  %18 = icmp ne ptr %17, null
  br i1 %18, label %19, label %24

19:                                               ; preds = %3
  %20 = load ptr, ptr %10, align 8, !tbaa !19
  %21 = getelementptr inbounds nuw %struct.ASN1_AUX_st, ptr %20, i32 0, i32 4
  %22 = load ptr, ptr %21, align 8, !tbaa !21
  %23 = icmp ne ptr %22, null
  br i1 %23, label %25, label %24

24:                                               ; preds = %19, %3
  call void @ERR_new()
  call void @ERR_set_debug(ptr noundef @.str, i32 noundef 67, ptr noundef @__func__.BIO_new_NDEF)
  call void (i32, i32, ptr, ...) @ERR_set_error(i32 noundef 13, i32 noundef 202, ptr noundef null)
  store ptr null, ptr %4, align 8
  store i32 1, ptr %13, align 4
  br label %95

25:                                               ; preds = %19
  %26 = call noalias ptr @CRYPTO_zalloc(i64 noundef 48, ptr noundef @.str, i32 noundef 70)
  store ptr %26, ptr %8, align 8, !tbaa !12
  %27 = call ptr @BIO_f_asn1()
  %28 = call ptr @BIO_new(ptr noundef %27)
  store ptr %28, ptr %9, align 8, !tbaa !3
  %29 = load ptr, ptr %8, align 8, !tbaa !12
  %30 = icmp eq ptr %29, null
  br i1 %30, label %34, label %31

31:                                               ; preds = %25
  %32 = load ptr, ptr %9, align 8, !tbaa !3
  %33 = icmp eq ptr %32, null
  br i1 %33, label %34, label %35

34:                                               ; preds = %31, %25
  br label %89

35:                                               ; preds = %31
  %36 = load ptr, ptr %9, align 8, !tbaa !3
  %37 = load ptr, ptr %5, align 8, !tbaa !3
  %38 = call ptr @BIO_push(ptr noundef %36, ptr noundef %37)
  store ptr %38, ptr %5, align 8, !tbaa !3
  %39 = load ptr, ptr %5, align 8, !tbaa !3
  %40 = icmp eq ptr %39, null
  br i1 %40, label %41, label %42

41:                                               ; preds = %35
  br label %89

42:                                               ; preds = %35
  %43 = load ptr, ptr %9, align 8, !tbaa !3
  store ptr %43, ptr %12, align 8, !tbaa !3
  %44 = load ptr, ptr %9, align 8, !tbaa !3
  %45 = call i32 @BIO_asn1_set_prefix(ptr noundef %44, ptr noundef @ndef_prefix, ptr noundef @ndef_prefix_free)
  %46 = icmp sle i32 %45, 0
  br i1 %46, label %56, label %47

47:                                               ; preds = %42
  %48 = load ptr, ptr %9, align 8, !tbaa !3
  %49 = call i32 @BIO_asn1_set_suffix(ptr noundef %48, ptr noundef @ndef_suffix, ptr noundef @ndef_suffix_free)
  %50 = icmp sle i32 %49, 0
  br i1 %50, label %56, label %51

51:                                               ; preds = %47
  %52 = load ptr, ptr %9, align 8, !tbaa !3
  %53 = load ptr, ptr %8, align 8, !tbaa !12
  %54 = call i64 @BIO_ctrl(ptr noundef %52, i32 noundef 153, i64 noundef 0, ptr noundef %53)
  %55 = icmp sle i64 %54, 0
  br i1 %55, label %56, label %57

56:                                               ; preds = %51, %47, %42
  br label %89

57:                                               ; preds = %51
  %58 = load ptr, ptr %5, align 8, !tbaa !3
  %59 = getelementptr inbounds nuw %struct.ASN1_STREAM_ARG_st, ptr %11, i32 0, i32 0
  store ptr %58, ptr %59, align 8, !tbaa !24
  %60 = getelementptr inbounds nuw %struct.ASN1_STREAM_ARG_st, ptr %11, i32 0, i32 1
  store ptr null, ptr %60, align 8, !tbaa !27
  %61 = getelementptr inbounds nuw %struct.ASN1_STREAM_ARG_st, ptr %11, i32 0, i32 2
  store ptr null, ptr %61, align 8, !tbaa !28
  %62 = load ptr, ptr %10, align 8, !tbaa !19
  %63 = getelementptr inbounds nuw %struct.ASN1_AUX_st, ptr %62, i32 0, i32 4
  %64 = load ptr, ptr %63, align 8, !tbaa !21
  %65 = load ptr, ptr %7, align 8, !tbaa !10
  %66 = call i32 %64(i32 noundef 10, ptr noundef %6, ptr noundef %65, ptr noundef %11)
  %67 = icmp sle i32 %66, 0
  br i1 %67, label %68, label %69

68:                                               ; preds = %57
  store ptr null, ptr %8, align 8, !tbaa !12
  br label %89

69:                                               ; preds = %57
  %70 = load ptr, ptr %6, align 8, !tbaa !8
  %71 = load ptr, ptr %8, align 8, !tbaa !12
  %72 = getelementptr inbounds nuw %struct.ndef_aux_st, ptr %71, i32 0, i32 0
  store ptr %70, ptr %72, align 8, !tbaa !29
  %73 = load ptr, ptr %7, align 8, !tbaa !10
  %74 = load ptr, ptr %8, align 8, !tbaa !12
  %75 = getelementptr inbounds nuw %struct.ndef_aux_st, ptr %74, i32 0, i32 1
  store ptr %73, ptr %75, align 8, !tbaa !31
  %76 = getelementptr inbounds nuw %struct.ASN1_STREAM_ARG_st, ptr %11, i32 0, i32 1
  %77 = load ptr, ptr %76, align 8, !tbaa !27
  %78 = load ptr, ptr %8, align 8, !tbaa !12
  %79 = getelementptr inbounds nuw %struct.ndef_aux_st, ptr %78, i32 0, i32 2
  store ptr %77, ptr %79, align 8, !tbaa !32
  %80 = getelementptr inbounds nuw %struct.ASN1_STREAM_ARG_st, ptr %11, i32 0, i32 2
  %81 = load ptr, ptr %80, align 8, !tbaa !28
  %82 = load ptr, ptr %8, align 8, !tbaa !12
  %83 = getelementptr inbounds nuw %struct.ndef_aux_st, ptr %82, i32 0, i32 4
  store ptr %81, ptr %83, align 8, !tbaa !33
  %84 = load ptr, ptr %5, align 8, !tbaa !3
  %85 = load ptr, ptr %8, align 8, !tbaa !12
  %86 = getelementptr inbounds nuw %struct.ndef_aux_st, ptr %85, i32 0, i32 3
  store ptr %84, ptr %86, align 8, !tbaa !34
  %87 = getelementptr inbounds nuw %struct.ASN1_STREAM_ARG_st, ptr %11, i32 0, i32 1
  %88 = load ptr, ptr %87, align 8, !tbaa !27
  store ptr %88, ptr %4, align 8
  store i32 1, ptr %13, align 4
  br label %95

89:                                               ; preds = %68, %56, %41, %34
  %90 = load ptr, ptr %12, align 8, !tbaa !3
  %91 = call ptr @BIO_pop(ptr noundef %90)
  %92 = load ptr, ptr %9, align 8, !tbaa !3
  %93 = call i32 @BIO_free(ptr noundef %92)
  %94 = load ptr, ptr %8, align 8, !tbaa !12
  call void @CRYPTO_free(ptr noundef %94, ptr noundef @.str, i32 noundef 125)
  store ptr null, ptr %4, align 8
  store i32 1, ptr %13, align 4
  br label %95

95:                                               ; preds = %89, %69, %24
  call void @llvm.lifetime.end.p0(i64 8, ptr %12) #3
  call void @llvm.lifetime.end.p0(i64 24, ptr %11) #3
  call void @llvm.lifetime.end.p0(i64 8, ptr %10) #3
  call void @llvm.lifetime.end.p0(i64 8, ptr %9) #3
  call void @llvm.lifetime.end.p0(i64 8, ptr %8) #3
  %96 = load ptr, ptr %4, align 8
  ret ptr %96
}