; Function Attrs: nounwind uwtable
define ptr @BIO_new_NDEF(ptr noundef %0, ptr noundef %1, ptr noundef %2) local_unnamed_addr #0 {
  %4 = alloca ptr, align 8
  %5 = alloca %struct.ASN1_STREAM_ARG_st, align 8
  store ptr %1, ptr %4, align 8, !tbaa !3
  %6 = getelementptr inbounds nuw i8, ptr %2, i64 32
  %7 = load ptr, ptr %6, align 8, !tbaa !8
  call void @llvm.lifetime.start.p0(i64 24, ptr nonnull %5) #4
  %.not = icmp eq ptr %7, null
  br i1 %.not, label %11, label %8

8:                                                ; preds = %3
  %9 = getelementptr inbounds nuw i8, ptr %7, i64 24
  %10 = load ptr, ptr %9, align 8, !tbaa !13
  %.not34 = icmp eq ptr %10, null
  br i1 %.not34, label %11, label %12

11:                                               ; preds = %8, %3
  tail call void @ERR_new() #4
  tail call void @ERR_set_debug(ptr noundef nonnull @.str, i32 noundef 67, ptr noundef nonnull @__func__.BIO_new_NDEF) #4
  tail call void (i32, i32, ptr, ...) @ERR_set_error(i32 noundef 13, i32 noundef 202, ptr noundef null) #4
  br label %47

12:                                               ; preds = %8
  %13 = tail call noalias ptr @CRYPTO_zalloc(i64 noundef 48, ptr noundef nonnull @.str, i32 noundef 70) #4
  %14 = tail call ptr @BIO_f_asn1() #4
  %15 = tail call ptr @BIO_new(ptr noundef %14) #4
  %16 = icmp eq ptr %13, null
  %17 = icmp eq ptr %15, null
  %or.cond = select i1 %16, i1 true, i1 %17
  br i1 %or.cond, label %44, label %18

18:                                               ; preds = %12
  %19 = tail call ptr @BIO_push(ptr noundef nonnull %15, ptr noundef %0) #4
  %20 = icmp eq ptr %19, null
  br i1 %20, label %44, label %21

21:                                               ; preds = %18
  %22 = tail call i32 @BIO_asn1_set_prefix(ptr noundef nonnull %15, ptr noundef nonnull @ndef_prefix, ptr noundef nonnull @ndef_prefix_free) #4
  %23 = icmp slt i32 %22, 1
  br i1 %23, label %44, label %24

24:                                               ; preds = %21
  %25 = tail call i32 @BIO_asn1_set_suffix(ptr noundef nonnull %15, ptr noundef nonnull @ndef_suffix, ptr noundef nonnull @ndef_suffix_free) #4
  %26 = icmp slt i32 %25, 1
  br i1 %26, label %44, label %27

27:                                               ; preds = %24
  %28 = tail call i64 @BIO_ctrl(ptr noundef nonnull %15, i32 noundef 153, i64 noundef 0, ptr noundef nonnull %13) #4
  %29 = icmp slt i64 %28, 1
  br i1 %29, label %44, label %30

30:                                               ; preds = %27
  store ptr %19, ptr %5, align 8, !tbaa !16
  %31 = getelementptr inbounds nuw i8, ptr %5, i64 8
  call void @llvm.memset.p0.i64(ptr noundef nonnull align 8 dereferenceable(16) %31, i8 0, i64 16, i1 false)
  %32 = load ptr, ptr %9, align 8, !tbaa !13
  %33 = call i32 %32(i32 noundef 10, ptr noundef nonnull %4, ptr noundef nonnull %2, ptr noundef nonnull %5) #4
  %34 = icmp slt i32 %33, 1
  br i1 %34, label %44, label %35

35:                                               ; preds = %30
  %36 = getelementptr inbounds nuw i8, ptr %5, i64 16
  %37 = load ptr, ptr %4, align 8, !tbaa !3
  store ptr %37, ptr %13, align 8, !tbaa !20
  %38 = getelementptr inbounds nuw i8, ptr %13, i64 8
  store ptr %2, ptr %38, align 8, !tbaa !23
  %39 = load ptr, ptr %31, align 8, !tbaa !24
  %40 = getelementptr inbounds nuw i8, ptr %13, i64 16
  store ptr %39, ptr %40, align 8, !tbaa !25
  %41 = load ptr, ptr %36, align 8, !tbaa !26
  %42 = getelementptr inbounds nuw i8, ptr %13, i64 32
  store ptr %41, ptr %42, align 8, !tbaa !27
  %43 = getelementptr inbounds nuw i8, ptr %13, i64 24
  store ptr %19, ptr %43, align 8, !tbaa !28
  br label %47

44:                                               ; preds = %30, %21, %24, %27, %18, %12
  %.029 = phi ptr [ %13, %12 ], [ %13, %18 ], [ %13, %21 ], [ %13, %24 ], [ %13, %27 ], [ null, %30 ]
  %.0 = phi ptr [ null, %12 ], [ null, %18 ], [ %15, %21 ], [ %15, %24 ], [ %15, %27 ], [ %15, %30 ]
  %45 = call ptr @BIO_pop(ptr noundef %.0) #4
  %46 = call i32 @BIO_free(ptr noundef %15) #4
  call void @CRYPTO_free(ptr noundef %.029, ptr noundef nonnull @.str, i32 noundef 125) #4
  br label %47

47:                                               ; preds = %44, %35, %11
  %.028 = phi ptr [ null, %44 ], [ %39, %35 ], [ null, %11 ]
  call void @llvm.lifetime.end.p0(i64 24, ptr nonnull %5) #4
  ret ptr %.028
}